; Function Attrs: mustprogress nounwind uwtable
define void @_ZN6icu_7522MetaZoneIDsEnumerationD2Ev(ptr noundef nonnull align 8 dereferenceable(144) %this) unnamed_addr #0 align 2 {
entry:
  store ptr getelementptr inbounds ({ [13 x ptr] }, ptr @_ZTVN6icu_7522MetaZoneIDsEnumerationE, i64 0, i32 0, i64 2), ptr %this, align 8
  %fLocalVector = getelementptr inbounds i8, ptr %this, i64 136
  %0 = load ptr, ptr %fLocalVector, align 8
  %isnull.i = icmp eq ptr %0, null
  br i1 %isnull.i, label %_ZN6icu_7512LocalPointerINS_7UVectorEED2Ev.exit, label %delete.notnull.i

delete.notnull.i:                                 ; preds = %entry
  %vtable.i = load ptr, ptr %0, align 8
  %vfn.i = getelementptr inbounds i8, ptr %vtable.i, i64 8
  %1 = load ptr, ptr %vfn.i, align 8
  tail call void %1(ptr noundef nonnull align 8 dereferenceable(40) %0) #20
  br label %_ZN6icu_7512LocalPointerINS_7UVectorEED2Ev.exit

_ZN6icu_7512LocalPointerINS_7UVectorEED2Ev.exit:  ; preds = %entry, %delete.notnull.i
  tail call void @_ZN6icu_7517StringEnumerationD2Ev(ptr noundef nonnull align 8 dereferenceable(116) %this) #20
  ret void
}